target datalayout = "e-m:e-p270:32:32-p271:32:32-p272:64:64-i64:64-i128:128-f80:128-n8:16:32:64-S128"
target triple = "x86_64-pc-linux-gnu"

%struct.AVFilterContext = type { ptr, ptr, ptr, ptr, ptr, i32, ptr, ptr, i32, ptr, ptr, i32, i32, ptr, ptr, ptr, ptr, i32, ptr, i32, i32 }
%struct.PaletteGenContext = type { ptr, i32, i32, i32, ptr, [32768 x %struct.hist_node], ptr, i32, [256 x %struct.range_box], i32, i32, [4 x i8] }
%struct.hist_node = type { ptr, i32 }
%struct.range_box = type { i32, %struct.Lab, i32, i64, i64, i32, i32, i32 }
%struct.Lab = type { i32, i32, i32 }
%struct.AVFilterFormatsConfig = type { ptr, ptr, ptr, ptr, ptr }
%struct.AVFilterLink = type { ptr, ptr, ptr, ptr, i32, i32, i32, i32, %struct.AVRational, i32, i32, i32, %struct.AVChannelLayout, %struct.AVRational, ptr, i32, %struct.AVFilterFormatsConfig, %struct.AVFilterFormatsConfig }
%struct.AVChannelLayout = type { i32, i32, %union.anon.1, ptr }
%union.anon.1 = type { i64 }
%struct.AVRational = type { i32, i32 }

; Function Attrs: nounwind uwtable
define internal i32 @request_frame(ptr noundef %0) #0 {
  %2 = alloca i32, align 4
  %3 = alloca ptr, align 8
  %4 = alloca ptr, align 8
  %5 = alloca ptr, align 8
  %6 = alloca ptr, align 8
  %7 = alloca i32, align 4
  %8 = alloca i32, align 4
  store ptr %0, ptr %3, align 8, !tbaa !36
  call void @llvm.lifetime.start.p0(i64 8, ptr %4) #10
  %9 = load ptr, ptr %3, align 8, !tbaa !36
  %10 = getelementptr inbounds nuw %struct.AVFilterLink, ptr %9, i32 0, i32 0
  %11 = load ptr, ptr %10, align 8, !tbaa !117
  store ptr %11, ptr %4, align 8, !tbaa !4
  call void @llvm.lifetime.start.p0(i64 8, ptr %5) #10
  %12 = load ptr, ptr %4, align 8, !tbaa !4
  %13 = getelementptr inbounds nuw %struct.AVFilterContext, ptr %12, i32 0, i32 4
  %14 = load ptr, ptr %13, align 8, !tbaa !118
  %15 = getelementptr inbounds ptr, ptr %14, i64 0
  %16 = load ptr, ptr %15, align 8, !tbaa !36
  store ptr %16, ptr %5, align 8, !tbaa !36
  call void @llvm.lifetime.start.p0(i64 8, ptr %6) #10
  %17 = load ptr, ptr %4, align 8, !tbaa !4
  %18 = getelementptr inbounds nuw %struct.AVFilterContext, ptr %17, i32 0, i32 9
  %19 = load ptr, ptr %18, align 8, !tbaa !9
  store ptr %19, ptr %6, align 8, !tbaa !22
  call void @llvm.lifetime.start.p0(i64 4, ptr %7) #10
  %20 = load ptr, ptr %5, align 8, !tbaa !36
  %21 = call i32 @ff_request_frame(ptr noundef %20)
  store i32 %21, ptr %7, align 4, !tbaa !29
  %22 = load i32, ptr %7, align 4, !tbaa !29
  %23 = icmp eq i32 %22, -541478725
  br i1 %23, label %24, label %47

24:                                               ; preds = %1
  %25 = load ptr, ptr %6, align 8, !tbaa !22
  %26 = getelementptr inbounds nuw %struct.PaletteGenContext, ptr %25, i32 0, i32 10
  %27 = load i32, ptr %26, align 4, !tbaa !119
  %28 = icmp ne i32 %27, 0
  br i1 %28, label %47, label %29

29:                                               ; preds = %24
  %30 = load ptr, ptr %6, align 8, !tbaa !22
  %31 = getelementptr inbounds nuw %struct.PaletteGenContext, ptr %30, i32 0, i32 7
  %32 = load i32, ptr %31, align 8, !tbaa !54
  %33 = icmp ne i32 %32, 0
  br i1 %33, label %34, label %47

34:                                               ; preds = %29
  %35 = load ptr, ptr %6, align 8, !tbaa !22
  %36 = getelementptr inbounds nuw %struct.PaletteGenContext, ptr %35, i32 0, i32 3
  %37 = load i32, ptr %36, align 8, !tbaa !55
  %38 = icmp ne i32 %37, 2
  br i1 %38, label %39, label %47

39:                                               ; preds = %34
  %40 = load ptr, ptr %3, align 8, !tbaa !36
  %41 = load ptr, ptr %4, align 8, !tbaa !4
  %42 = call ptr @get_palette_frame(ptr noundef %41)
  %43 = call i32 @ff_filter_frame(ptr noundef %40, ptr noundef %42)
  store i32 %43, ptr %7, align 4, !tbaa !29
  %44 = load ptr, ptr %6, align 8, !tbaa !22
  %45 = getelementptr inbounds nuw %struct.PaletteGenContext, ptr %44, i32 0, i32 10
  store i32 1, ptr %45, align 4, !tbaa !119
  %46 = load i32, ptr %7, align 4, !tbaa !29
  store i32 %46, ptr %2, align 4
  store i32 1, ptr %8, align 4
  br label %49

47:                                               ; preds = %34, %29, %24, %1
  %48 = load i32, ptr %7, align 4, !tbaa !29
  store i32 %48, ptr %2, align 4
  store i32 1, ptr %8, align 4
  br label %49

49:                                               ; preds = %47, %39
  call void @llvm.lifetime.end.p0(i64 4, ptr %7) #10
  call void @llvm.lifetime.end.p0(i64 8, ptr %6) #10
  call void @llvm.lifetime.end.p0(i64 8, ptr %5) #10
  call void @llvm.lifetime.end.p0(i64 8, ptr %4) #10
  %50 = load i32, ptr %2, align 4
  ret i32 %50
}