; Function Attrs: nounwind uwtable
define internal i32 @request_frame(ptr noundef %0) #0 {
  %2 = load ptr, ptr %0, align 8, !tbaa !101
  %3 = getelementptr inbounds nuw i8, ptr %2, i64 32
  %4 = load ptr, ptr %3, align 8, !tbaa !102
  %5 = load ptr, ptr %4, align 8, !tbaa !68
  %6 = getelementptr inbounds nuw i8, ptr %2, i64 72
  %7 = load ptr, ptr %6, align 8, !tbaa !4
  %8 = tail call i32 @ff_request_frame(ptr noundef %5) #13
  %9 = icmp eq i32 %8, -541478725
  br i1 %9, label %10, label %22

10:                                               ; preds = %1
  %11 = getelementptr inbounds nuw i8, ptr %7, i64 538676
  %12 = load i32, ptr %11, align 4, !tbaa !103
  %.not = icmp eq i32 %12, 0
  br i1 %.not, label %13, label %22

13:                                               ; preds = %10
  %14 = getelementptr inbounds nuw i8, ptr %7, i64 524328
  %15 = load i32, ptr %14, align 8, !tbaa !64
  %.not13 = icmp eq i32 %15, 0
  br i1 %.not13, label %22, label %16

16:                                               ; preds = %13
  %17 = getelementptr inbounds nuw i8, ptr %7, i64 16
  %18 = load i32, ptr %17, align 8, !tbaa !65
  %.not14 = icmp eq i32 %18, 2
  br i1 %.not14, label %22, label %19

19:                                               ; preds = %16
  %20 = tail call fastcc ptr @get_palette_frame(ptr noundef nonnull %2)
  %21 = tail call i32 @ff_filter_frame(ptr noundef nonnull %0, ptr noundef %20) #13
  store i32 1, ptr %11, align 4, !tbaa !103
  br label %22

22:                                               ; preds = %1, %10, %13, %16, %19
  %.0 = phi i32 [ %21, %19 ], [ -541478725, %16 ], [ -541478725, %13 ], [ -541478725, %10 ], [ %8, %1 ]
  ret i32 %.0
}